target datalayout = "e-m:e-p270:32:32-p271:32:32-p272:64:64-i64:64-i128:128-f80:128-n8:16:32:64-S128"
target triple = "x86_64-pc-linux-gnu"

@mainctx = internal global ptr null, align 8
@.str.28 = private unnamed_addr constant [34 x i8] c"../openssl/test/evp_extra_test2.c\00", align 1
@.str.114 = private unnamed_addr constant [4 x i8] c"DSA\00", align 1
@.str.132 = private unnamed_addr constant [77 x i8] c"key = d2i_AutoPrivateKey_ex(NULL, &pkeydata, sizeof(dsa_key), mainctx, NULL)\00", align 1
@.str.133 = private unnamed_addr constant [39 x i8] c"do_pkey_tofrom_data_select(key, \22DSA\22)\00", align 1

; Function Attrs: nounwind uwtable
define internal i32 @test_dsa_tofrom_data_select() #0 {
  %1 = alloca i32, align 4
  %2 = alloca ptr, align 8
  %3 = alloca ptr, align 8
  call void @llvm.lifetime.start.p0(i64 4, ptr %1) #7
  call void @llvm.lifetime.start.p0(i64 8, ptr %2) #7
  store ptr null, ptr %2, align 8, !tbaa !13
  call void @llvm.lifetime.start.p0(i64 8, ptr %3) #7
  store ptr @dsa_key, ptr %3, align 8, !tbaa !21
  %4 = load ptr, ptr @mainctx, align 8, !tbaa !4
  %5 = call ptr @d2i_AutoPrivateKey_ex(ptr noundef null, ptr noundef %3, i64 noundef 850, ptr noundef %4, ptr noundef null)
  store ptr %5, ptr %2, align 8, !tbaa !13
  %6 = call i32 @test_ptr(ptr noundef @.str.28, i32 noundef 1084, ptr noundef @.str.132, ptr noundef %5)
  %7 = icmp ne i32 %6, 0
  br i1 %7, label %8, label %15

8:                                                ; preds = %0
  %9 = load ptr, ptr %2, align 8, !tbaa !13
  %10 = call i32 @do_pkey_tofrom_data_select(ptr noundef %9, ptr noundef @.str.114)
  %11 = icmp ne i32 %10, 0
  %12 = zext i1 %11 to i32
  %13 = call i32 @test_true(ptr noundef @.str.28, i32 noundef 1085, ptr noundef @.str.133, i32 noundef %12)
  %14 = icmp ne i32 %13, 0
  br label %15

15:                                               ; preds = %8, %0
  %16 = phi i1 [ false, %0 ], [ %14, %8 ]
  %17 = zext i1 %16 to i32
  store i32 %17, ptr %1, align 4, !tbaa !11
  %18 = load ptr, ptr %2, align 8, !tbaa !13
  call void @EVP_PKEY_free(ptr noundef %18)
  %19 = load i32, ptr %1, align 4, !tbaa !11
  call void @llvm.lifetime.end.p0(i64 8, ptr %3) #7
  call void @llvm.lifetime.end.p0(i64 8, ptr %2) #7
  call void @llvm.lifetime.end.p0(i64 4, ptr %1) #7
  ret i32 %19
}